target datalayout = "e-m:e-p270:32:32-p271:32:32-p272:64:64-i64:64-i128:128-f80:128-n8:16:32:64-S128"
target triple = "x86_64-pc-linux-gnu"

%struct.lstopo_output = type { ptr, i32, i32, i32, ptr, i32, i32, i32, i32, i32, i32, i32, i32, ptr, ptr, i32, i32, i64, i64, i64, i32, [3 x [128 x i8]], i32, i32, ptr, i32, i32, i32, i32, i32, i32, %struct.hwloc_calc_level, i32, i32, i32, i64, [256 x i8], i32, i32, i32, i32, i32, float, [20 x i32], i32, i32, i32, [20 x i32], i32, [20 x i32], i32, [20 x i32], i32, i32, i32, i32, ptr, ptr, i32, [20 x i32], [20 x i32], [20 x i32], ptr, ptr, i64, ptr, i32, i32, i32 }
%struct.hwloc_calc_level = type { i32, i32, %union.hwloc_obj_attr_u, [32 x i8], i32, i32, i32, i32 }
%union.hwloc_obj_attr_u = type { %struct.hwloc_numanode_attr_s, [24 x i8] }
%struct.hwloc_numanode_attr_s = type { i64, i32, ptr }
%struct.draw_methods = type { ptr, ptr, ptr, ptr, ptr, ptr }
%struct.hwloc_obj = type { i32, ptr, i32, ptr, i64, ptr, i32, i32, ptr, ptr, ptr, i32, ptr, ptr, i32, ptr, ptr, ptr, i32, i32, ptr, i32, ptr, i32, ptr, ptr, ptr, ptr, ptr, %struct.hwloc_infos_s, ptr, i64 }
%struct.hwloc_infos_s = type { ptr, i32, i32 }
%struct.lstopo_obj_userdata = type { %struct.hwloc_utils_userdata, i32, i32, %struct.lstopo_style, i32, i32, i32, i32, %struct.lstopo_children_position, %struct.lstopo_children_position, %struct.lstopo_children_position, %struct.lstopo_children_position, i32, i32, i32, [4 x %struct.lstopo_text_line], i32, i32 }
%struct.hwloc_utils_userdata = type { ptr, i64, ptr, ptr }
%struct.lstopo_style = type { ptr, ptr, ptr }
%struct.lstopo_children_position = type { i32, i32, i32, i32, i32, i32, ptr }
%struct.lstopo_text_line = type { [128 x i8], i32, i32 }

; Function Attrs: nounwind uwtable
define internal ptr @get_type_fun(i32 noundef %0) #0 {
  %2 = alloca ptr, align 8
  %3 = alloca i32, align 4
  store i32 %0, ptr %3, align 4, !tbaa !18
  %4 = load i32, ptr %3, align 4, !tbaa !18
  switch i32 %4, label %17 [
    i32 0, label %5
    i32 14, label %5
    i32 1, label %5
    i32 2, label %5
    i32 3, label %5
    i32 4, label %5
    i32 13, label %5
    i32 18, label %5
    i32 19, label %5
    i32 5, label %6
    i32 6, label %7
    i32 7, label %8
    i32 8, label %9
    i32 9, label %10
    i32 10, label %11
    i32 11, label %12
    i32 12, label %13
    i32 15, label %14
    i32 17, label %15
    i32 16, label %16
    i32 20, label %18
  ]

5:                                                ; preds = %1, %1, %1, %1, %1, %1, %1, %1, %1
  store ptr @normal_draw, ptr %2, align 8
  br label %20

6:                                                ; preds = %1
  store ptr @cache_draw, ptr %2, align 8
  br label %20

7:                                                ; preds = %1
  store ptr @cache_draw, ptr %2, align 8
  br label %20

8:                                                ; preds = %1
  store ptr @cache_draw, ptr %2, align 8
  br label %20

9:                                                ; preds = %1
  store ptr @cache_draw, ptr %2, align 8
  br label %20

10:                                               ; preds = %1
  store ptr @cache_draw, ptr %2, align 8
  br label %20

11:                                               ; preds = %1
  store ptr @cache_draw, ptr %2, align 8
  br label %20

12:                                               ; preds = %1
  store ptr @cache_draw, ptr %2, align 8
  br label %20

13:                                               ; preds = %1
  store ptr @cache_draw, ptr %2, align 8
  br label %20

14:                                               ; preds = %1
  store ptr @cache_draw, ptr %2, align 8
  br label %20

15:                                               ; preds = %1
  store ptr @pci_device_draw, ptr %2, align 8
  br label %20

16:                                               ; preds = %1
  store ptr @bridge_draw, ptr %2, align 8
  br label %20

17:                                               ; preds = %1
  br label %18

18:                                               ; preds = %1, %17
  br label %19

19:                                               ; preds = %18
  store ptr @normal_draw, ptr %2, align 8
  br label %20

20:                                               ; preds = %19, %16, %15, %14, %13, %12, %11, %10, %9, %8, %7, %6, %5
  %21 = load ptr, ptr %2, align 8
  ret ptr %21
}

; Function Attrs: nounwind uwtable
define internal void @draw__children(ptr noundef %0, ptr noundef %1, ptr noundef %2, i32 noundef %3, i32 noundef %4, i32 noundef %5) #0 {
  %7 = alloca ptr, align 8
  %8 = alloca ptr, align 8
  %9 = alloca ptr, align 8
  %10 = alloca i32, align 4
  %11 = alloca i32, align 4
  %12 = alloca i32, align 4
  %13 = alloca ptr, align 8
  %14 = alloca i32, align 4
  %15 = alloca ptr, align 8
  store ptr %0, ptr %7, align 8, !tbaa !4
  store ptr %1, ptr %8, align 8, !tbaa !42
  store ptr %2, ptr %9, align 8, !tbaa !210
  store i32 %3, ptr %10, align 4, !tbaa !18
  store i32 %4, ptr %11, align 4, !tbaa !18
  store i32 %5, ptr %12, align 4, !tbaa !18
  call void @llvm.lifetime.start.p0(i64 8, ptr %13) #12
  call void @llvm.lifetime.start.p0(i64 4, ptr %14) #12
  %16 = load ptr, ptr %9, align 8, !tbaa !210
  %17 = getelementptr inbounds nuw %struct.lstopo_children_position, ptr %16, i32 0, i32 5
  %18 = load i32, ptr %17, align 4, !tbaa !212
  %19 = icmp ne i32 %18, 0
  br i1 %19, label %20, label %40

20:                                               ; preds = %6
  %21 = load ptr, ptr %7, align 8, !tbaa !4
  %22 = getelementptr inbounds nuw %struct.lstopo_output, ptr %21, i32 0, i32 65
  %23 = load ptr, ptr %22, align 8, !tbaa !35
  %24 = getelementptr inbounds nuw %struct.draw_methods, ptr %23, i32 0, i32 2
  %25 = load ptr, ptr %24, align 8, !tbaa !101
  %26 = load ptr, ptr %7, align 8, !tbaa !4
  %27 = load ptr, ptr %9, align 8, !tbaa !210
  %28 = getelementptr inbounds nuw %struct.lstopo_children_position, ptr %27, i32 0, i32 6
  %29 = load ptr, ptr %28, align 8, !tbaa !213
  %30 = load i32, ptr %10, align 4, !tbaa !18
  %31 = load i32, ptr %11, align 4, !tbaa !18
  %32 = load ptr, ptr %9, align 8, !tbaa !210
  %33 = getelementptr inbounds nuw %struct.lstopo_children_position, ptr %32, i32 0, i32 1
  %34 = load i32, ptr %33, align 4, !tbaa !214
  %35 = load i32, ptr %12, align 4, !tbaa !18
  %36 = load ptr, ptr %9, align 8, !tbaa !210
  %37 = getelementptr inbounds nuw %struct.lstopo_children_position, ptr %36, i32 0, i32 2
  %38 = load i32, ptr %37, align 8, !tbaa !215
  %39 = load ptr, ptr %8, align 8, !tbaa !42
  call void %25(ptr noundef %26, ptr noundef %29, i32 noundef %30, i32 noundef %31, i32 noundef %34, i32 noundef %35, i32 noundef %38, ptr noundef %39, i32 noundef 1)
  br label %40

40:                                               ; preds = %20, %6
  %41 = load ptr, ptr %7, align 8, !tbaa !4
  %42 = load ptr, ptr %8, align 8, !tbaa !42
  %43 = load ptr, ptr %9, align 8, !tbaa !210
  %44 = getelementptr inbounds nuw %struct.lstopo_children_position, ptr %43, i32 0, i32 0
  %45 = load i32, ptr %44, align 8, !tbaa !216
  %46 = call ptr @next_child(ptr noundef %41, ptr noundef %42, i32 noundef %45, ptr noundef null, ptr noundef %14)
  store ptr %46, ptr %13, align 8, !tbaa !42
  br label %47

47:                                               ; preds = %72, %40
  %48 = load ptr, ptr %13, align 8, !tbaa !42
  %49 = icmp ne ptr %48, null
  br i1 %49, label %50, label %80

50:                                               ; preds = %47
  call void @llvm.lifetime.start.p0(i64 8, ptr %15) #12
  %51 = load ptr, ptr %13, align 8, !tbaa !42
  %52 = getelementptr inbounds nuw %struct.hwloc_obj, ptr %51, i32 0, i32 30
  %53 = load ptr, ptr %52, align 8, !tbaa !44
  store ptr %53, ptr %15, align 8, !tbaa !50
  %54 = load ptr, ptr %13, align 8, !tbaa !42
  %55 = getelementptr inbounds nuw %struct.hwloc_obj, ptr %54, i32 0, i32 0
  %56 = load i32, ptr %55, align 8, !tbaa !96
  %57 = call ptr @get_type_fun(i32 noundef %56)
  %58 = load ptr, ptr %7, align 8, !tbaa !4
  %59 = load ptr, ptr %13, align 8, !tbaa !42
  %60 = load i32, ptr %10, align 4, !tbaa !18
  %61 = sub i32 %60, 1
  %62 = load i32, ptr %11, align 4, !tbaa !18
  %63 = load ptr, ptr %15, align 8, !tbaa !50
  %64 = getelementptr inbounds nuw %struct.lstopo_obj_userdata, ptr %63, i32 0, i32 12
  %65 = load i32, ptr %64, align 8, !tbaa !201
  %66 = add i32 %62, %65
  %67 = load i32, ptr %12, align 4, !tbaa !18
  %68 = load ptr, ptr %15, align 8, !tbaa !50
  %69 = getelementptr inbounds nuw %struct.lstopo_obj_userdata, ptr %68, i32 0, i32 13
  %70 = load i32, ptr %69, align 4, !tbaa !154
  %71 = add i32 %67, %70
  call void %57(ptr noundef %58, ptr noundef %59, i32 noundef %61, i32 noundef %66, i32 noundef %71)
  call void @llvm.lifetime.end.p0(i64 8, ptr %15) #12
  br label %72

72:                                               ; preds = %50
  %73 = load ptr, ptr %7, align 8, !tbaa !4
  %74 = load ptr, ptr %8, align 8, !tbaa !42
  %75 = load ptr, ptr %9, align 8, !tbaa !210
  %76 = getelementptr inbounds nuw %struct.lstopo_children_position, ptr %75, i32 0, i32 0
  %77 = load i32, ptr %76, align 8, !tbaa !216
  %78 = load ptr, ptr %13, align 8, !tbaa !42
  %79 = call ptr @next_child(ptr noundef %73, ptr noundef %74, i32 noundef %77, ptr noundef %78, ptr noundef %14)
  store ptr %79, ptr %13, align 8, !tbaa !42
  br label %47, !llvm.loop !217

80:                                               ; preds = %47
  call void @llvm.lifetime.end.p0(i64 4, ptr %14) #12
  call void @llvm.lifetime.end.p0(i64 8, ptr %13) #12
  ret void
}