; Function Attrs: nounwind uwtable
define internal fastcc void @draw__children(ptr noundef %0, ptr noundef %1, ptr noundef readonly captures(none) %2, i32 noundef %3, i32 noundef %4, i32 noundef %5) unnamed_addr #8 {
  %7 = alloca i32, align 4
  call void @llvm.lifetime.start.p0(i64 4, ptr nonnull %7) #26
  %8 = getelementptr inbounds nuw i8, ptr %2, i64 20
  %9 = load i32, ptr %8, align 4, !tbaa !189
  %.not = icmp eq i32 %9, 0
  br i1 %.not, label %21, label %10

10:                                               ; preds = %6
  %11 = getelementptr inbounds nuw i8, ptr %0, i64 1600
  %12 = load ptr, ptr %11, align 8, !tbaa !27
  %13 = getelementptr inbounds nuw i8, ptr %12, i64 16
  %14 = load ptr, ptr %13, align 8, !tbaa !102
  %15 = getelementptr inbounds nuw i8, ptr %2, i64 24
  %16 = load ptr, ptr %15, align 8, !tbaa !190
  %17 = getelementptr inbounds nuw i8, ptr %2, i64 4
  %18 = load i32, ptr %17, align 4, !tbaa !191
  %19 = getelementptr inbounds nuw i8, ptr %2, i64 8
  %20 = load i32, ptr %19, align 8, !tbaa !192
  tail call void %14(ptr noundef %0, ptr noundef %16, i32 noundef %3, i32 noundef %4, i32 noundef %18, i32 noundef %5, i32 noundef %20, ptr noundef %1, i32 noundef 1) #26
  br label %21

21:                                               ; preds = %10, %6
  %22 = load i32, ptr %2, align 8, !tbaa !193
  %23 = call fastcc ptr @next_child(ptr noundef %0, ptr noundef %1, i32 noundef %22, ptr noundef null, ptr noundef %7)
  %.not2627 = icmp eq ptr %23, null
  br i1 %.not2627, label %._crit_edge, label %.lr.ph

.lr.ph:                                           ; preds = %21
  %24 = add i32 %3, -1
  br label %25

25:                                               ; preds = %.lr.ph, %get_type_fun.exit
  %.028 = phi ptr [ %23, %.lr.ph ], [ %38, %get_type_fun.exit ]
  %26 = getelementptr inbounds nuw i8, ptr %.028, i64 232
  %27 = load ptr, ptr %26, align 8, !tbaa !37
  %28 = load i32, ptr %.028, align 8, !tbaa !96
  %switch.tableidx = add i32 %28, -5
  %29 = icmp ult i32 %switch.tableidx, 13
  br i1 %29, label %switch.lookup, label %get_type_fun.exit

switch.lookup:                                    ; preds = %25
  %30 = zext nneg i32 %switch.tableidx to i64
  %switch.gep = getelementptr inbounds nuw [13 x ptr], ptr @switch.table.draw__children, i64 0, i64 %30
  %switch.load = load ptr, ptr %switch.gep, align 8
  br label %get_type_fun.exit

get_type_fun.exit:                                ; preds = %switch.lookup, %25
  %.0.i = phi ptr [ @normal_draw, %25 ], [ %switch.load, %switch.lookup ]
  %31 = getelementptr inbounds nuw i8, ptr %27, i64 208
  %32 = load i32, ptr %31, align 8, !tbaa !183
  %33 = add i32 %32, %4
  %34 = getelementptr inbounds nuw i8, ptr %27, i64 212
  %35 = load i32, ptr %34, align 4, !tbaa !132
  %36 = add i32 %35, %5
  tail call void %.0.i(ptr noundef %0, ptr noundef nonnull %.028, i32 noundef %24, i32 noundef %33, i32 noundef %36) #26, !callees !97
  %37 = load i32, ptr %2, align 8, !tbaa !193
  %38 = call fastcc ptr @next_child(ptr noundef %0, ptr noundef %1, i32 noundef %37, ptr noundef nonnull %.028, ptr noundef %7)
  %.not26 = icmp eq ptr %38, null
  br i1 %.not26, label %._crit_edge, label %25, !llvm.loop !194

._crit_edge:                                      ; preds = %get_type_fun.exit, %21
  call void @llvm.lifetime.end.p0(i64 4, ptr nonnull %7) #26
  ret void
}